; Function Attrs: mustprogress nounwind uwtable
define hidden void @_ZN14JfrJavaSupport7includeEP6Thread(ptr noundef %0) local_unnamed_addr #0 align 2 {
  %2 = load ptr, ptr %0, align 8
  %3 = getelementptr inbounds i8, ptr %2, i64 56
  %4 = load ptr, ptr %3, align 8
  %5 = tail call noundef zeroext i1 %4(ptr noundef nonnull align 8 dereferenceable(888) %0) #13
  br i1 %5, label %6, label %8

6:                                                ; preds = %1
  %7 = tail call noundef ptr @_ZNK10JavaThread9threadObjEv(ptr noundef nonnull align 8 dereferenceable(1800) %0) #13
  tail call void @_ZN14JfrJavaSupport7includeEP10JavaThreadP7oopDescP8_jobject(ptr noundef nonnull %0, ptr noundef %7, ptr noundef null)
  br label %9

8:                                                ; preds = %1
  tail call void @_ZN14JfrThreadLocal18include_jvm_threadEPK6Thread(ptr noundef nonnull %0) #13
  br label %9

9:                                                ; preds = %8, %6
  ret void
}